ARM GAS  C:\Users\efrank\AppData\Local\Temp\ccPU761z.s 			page 1


   1              		.cpu cortex-m4
   2              		.arch armv7e-m
   3              		.fpu fpv4-sp-d16
   4              		.eabi_attribute 27, 1
   5              		.eabi_attribute 28, 1
   6              		.eabi_attribute 20, 1
   7              		.eabi_attribute 21, 1
   8              		.eabi_attribute 23, 3
   9              		.eabi_attribute 24, 1
  10              		.eabi_attribute 25, 1
  11              		.eabi_attribute 26, 1
  12              		.eabi_attribute 30, 1
  13              		.eabi_attribute 34, 1
  14              		.eabi_attribute 18, 4
  15              		.file	"stm32f4xx_hal_msp_template.c"
  16              		.text
  17              	.Ltext0:
  18              		.cfi_sections	.debug_frame
  19              		.section	.text.HAL_MspInit,"ax",%progbits
  20              		.align	1
  21              		.global	HAL_MspInit
  22              		.syntax unified
  23              		.thumb
  24              		.thumb_func
  26              	HAL_MspInit:
  27              	.LFB134:
  28              		.file 1 "Drivers/STM32F4xx_HAL_Driver/Src/stm32f4xx_hal_msp_template.c"
   1:Drivers/STM32F4xx_HAL_Driver/Src/stm32f4xx_hal_msp_template.c **** /**
   2:Drivers/STM32F4xx_HAL_Driver/Src/stm32f4xx_hal_msp_template.c ****   ******************************************************************************
   3:Drivers/STM32F4xx_HAL_Driver/Src/stm32f4xx_hal_msp_template.c ****   * @file    stm32f4xx_hal_msp_template.c
   4:Drivers/STM32F4xx_HAL_Driver/Src/stm32f4xx_hal_msp_template.c ****   * @author  MCD Application Team
   5:Drivers/STM32F4xx_HAL_Driver/Src/stm32f4xx_hal_msp_template.c ****   * @brief   This file contains the HAL System and Peripheral (PPP) MSP initialization
   6:Drivers/STM32F4xx_HAL_Driver/Src/stm32f4xx_hal_msp_template.c ****   *          and de-initialization functions.
   7:Drivers/STM32F4xx_HAL_Driver/Src/stm32f4xx_hal_msp_template.c ****   *          It should be copied to the application folder and renamed into 'stm32f4xx_hal_msp.c'. 
   8:Drivers/STM32F4xx_HAL_Driver/Src/stm32f4xx_hal_msp_template.c ****   ******************************************************************************
   9:Drivers/STM32F4xx_HAL_Driver/Src/stm32f4xx_hal_msp_template.c ****   * @attention
  10:Drivers/STM32F4xx_HAL_Driver/Src/stm32f4xx_hal_msp_template.c ****   *
  11:Drivers/STM32F4xx_HAL_Driver/Src/stm32f4xx_hal_msp_template.c ****   * Copyright (c) 2017 STMicroelectronics.
  12:Drivers/STM32F4xx_HAL_Driver/Src/stm32f4xx_hal_msp_template.c ****   * All rights reserved.
  13:Drivers/STM32F4xx_HAL_Driver/Src/stm32f4xx_hal_msp_template.c ****   *
  14:Drivers/STM32F4xx_HAL_Driver/Src/stm32f4xx_hal_msp_template.c ****   * This software is licensed under terms that can be found in the LICENSE file
  15:Drivers/STM32F4xx_HAL_Driver/Src/stm32f4xx_hal_msp_template.c ****   * in the root directory of this software component.
  16:Drivers/STM32F4xx_HAL_Driver/Src/stm32f4xx_hal_msp_template.c ****   * If no LICENSE file comes with this software, it is provided AS-IS.
  17:Drivers/STM32F4xx_HAL_Driver/Src/stm32f4xx_hal_msp_template.c ****   *
  18:Drivers/STM32F4xx_HAL_Driver/Src/stm32f4xx_hal_msp_template.c ****   ******************************************************************************
  19:Drivers/STM32F4xx_HAL_Driver/Src/stm32f4xx_hal_msp_template.c ****   */ 
  20:Drivers/STM32F4xx_HAL_Driver/Src/stm32f4xx_hal_msp_template.c **** 
  21:Drivers/STM32F4xx_HAL_Driver/Src/stm32f4xx_hal_msp_template.c **** /* Includes ------------------------------------------------------------------*/
  22:Drivers/STM32F4xx_HAL_Driver/Src/stm32f4xx_hal_msp_template.c **** #include "stm32f4xx_hal.h"
  23:Drivers/STM32F4xx_HAL_Driver/Src/stm32f4xx_hal_msp_template.c **** 
  24:Drivers/STM32F4xx_HAL_Driver/Src/stm32f4xx_hal_msp_template.c **** /** @addtogroup STM32F4xx_HAL_Driver
  25:Drivers/STM32F4xx_HAL_Driver/Src/stm32f4xx_hal_msp_template.c ****   * @{
  26:Drivers/STM32F4xx_HAL_Driver/Src/stm32f4xx_hal_msp_template.c ****   */
  27:Drivers/STM32F4xx_HAL_Driver/Src/stm32f4xx_hal_msp_template.c **** 
  28:Drivers/STM32F4xx_HAL_Driver/Src/stm32f4xx_hal_msp_template.c **** /** @defgroup HAL_MSP HAL MSP
  29:Drivers/STM32F4xx_HAL_Driver/Src/stm32f4xx_hal_msp_template.c ****   * @brief HAL MSP module.
  30:Drivers/STM32F4xx_HAL_Driver/Src/stm32f4xx_hal_msp_template.c ****   * @{
ARM GAS  C:\Users\efrank\AppData\Local\Temp\ccPU761z.s 			page 2


  31:Drivers/STM32F4xx_HAL_Driver/Src/stm32f4xx_hal_msp_template.c ****   */
  32:Drivers/STM32F4xx_HAL_Driver/Src/stm32f4xx_hal_msp_template.c **** 
  33:Drivers/STM32F4xx_HAL_Driver/Src/stm32f4xx_hal_msp_template.c **** /* Private typedef -----------------------------------------------------------*/
  34:Drivers/STM32F4xx_HAL_Driver/Src/stm32f4xx_hal_msp_template.c **** /* Private define ------------------------------------------------------------*/
  35:Drivers/STM32F4xx_HAL_Driver/Src/stm32f4xx_hal_msp_template.c **** /* Private macro -------------------------------------------------------------*/
  36:Drivers/STM32F4xx_HAL_Driver/Src/stm32f4xx_hal_msp_template.c **** /* Private variables ---------------------------------------------------------*/
  37:Drivers/STM32F4xx_HAL_Driver/Src/stm32f4xx_hal_msp_template.c **** /* Private function prototypes -----------------------------------------------*/
  38:Drivers/STM32F4xx_HAL_Driver/Src/stm32f4xx_hal_msp_template.c **** /* Private functions ---------------------------------------------------------*/
  39:Drivers/STM32F4xx_HAL_Driver/Src/stm32f4xx_hal_msp_template.c **** 
  40:Drivers/STM32F4xx_HAL_Driver/Src/stm32f4xx_hal_msp_template.c **** /** @defgroup HAL_MSP_Private_Functions HAL MSP Private Functions
  41:Drivers/STM32F4xx_HAL_Driver/Src/stm32f4xx_hal_msp_template.c ****   * @{
  42:Drivers/STM32F4xx_HAL_Driver/Src/stm32f4xx_hal_msp_template.c ****   */
  43:Drivers/STM32F4xx_HAL_Driver/Src/stm32f4xx_hal_msp_template.c **** 
  44:Drivers/STM32F4xx_HAL_Driver/Src/stm32f4xx_hal_msp_template.c **** /**
  45:Drivers/STM32F4xx_HAL_Driver/Src/stm32f4xx_hal_msp_template.c ****   * @brief  Initializes the Global MSP.
  46:Drivers/STM32F4xx_HAL_Driver/Src/stm32f4xx_hal_msp_template.c ****   * @note   This function is called from HAL_Init() function to perform system
  47:Drivers/STM32F4xx_HAL_Driver/Src/stm32f4xx_hal_msp_template.c ****   *         level initialization (GPIOs, clock, DMA, interrupt).
  48:Drivers/STM32F4xx_HAL_Driver/Src/stm32f4xx_hal_msp_template.c ****   * @retval None
  49:Drivers/STM32F4xx_HAL_Driver/Src/stm32f4xx_hal_msp_template.c ****   */
  50:Drivers/STM32F4xx_HAL_Driver/Src/stm32f4xx_hal_msp_template.c **** void HAL_MspInit(void)
  51:Drivers/STM32F4xx_HAL_Driver/Src/stm32f4xx_hal_msp_template.c **** {
  29              		.loc 1 51 1 view -0
  30              		.cfi_startproc
  31              		@ args = 0, pretend = 0, frame = 0
  32              		@ frame_needed = 0, uses_anonymous_args = 0
  33              		@ link register save eliminated.
  52:Drivers/STM32F4xx_HAL_Driver/Src/stm32f4xx_hal_msp_template.c **** 
  53:Drivers/STM32F4xx_HAL_Driver/Src/stm32f4xx_hal_msp_template.c **** }
  34              		.loc 1 53 1 view .LVU1
  35 0000 7047     		bx	lr
  36              		.cfi_endproc
  37              	.LFE134:
  39              		.section	.text.HAL_MspDeInit,"ax",%progbits
  40              		.align	1
  41              		.global	HAL_MspDeInit
  42              		.syntax unified
  43              		.thumb
  44              		.thumb_func
  46              	HAL_MspDeInit:
  47              	.LFB135:
  54:Drivers/STM32F4xx_HAL_Driver/Src/stm32f4xx_hal_msp_template.c **** 
  55:Drivers/STM32F4xx_HAL_Driver/Src/stm32f4xx_hal_msp_template.c **** /**
  56:Drivers/STM32F4xx_HAL_Driver/Src/stm32f4xx_hal_msp_template.c ****   * @brief  DeInitializes the Global MSP.
  57:Drivers/STM32F4xx_HAL_Driver/Src/stm32f4xx_hal_msp_template.c ****   * @note   This functiona is called from HAL_DeInit() function to perform system
  58:Drivers/STM32F4xx_HAL_Driver/Src/stm32f4xx_hal_msp_template.c ****   *         level de-initialization (GPIOs, clock, DMA, interrupt).
  59:Drivers/STM32F4xx_HAL_Driver/Src/stm32f4xx_hal_msp_template.c ****   * @retval None
  60:Drivers/STM32F4xx_HAL_Driver/Src/stm32f4xx_hal_msp_template.c ****   */
  61:Drivers/STM32F4xx_HAL_Driver/Src/stm32f4xx_hal_msp_template.c **** void HAL_MspDeInit(void)
  62:Drivers/STM32F4xx_HAL_Driver/Src/stm32f4xx_hal_msp_template.c **** {
  48              		.loc 1 62 1 view -0
  49              		.cfi_startproc
  50              		@ args = 0, pretend = 0, frame = 0
  51              		@ frame_needed = 0, uses_anonymous_args = 0
  52              		@ link register save eliminated.
  63:Drivers/STM32F4xx_HAL_Driver/Src/stm32f4xx_hal_msp_template.c **** 
  64:Drivers/STM32F4xx_HAL_Driver/Src/stm32f4xx_hal_msp_template.c **** }
  53              		.loc 1 64 1 view .LVU3
ARM GAS  C:\Users\efrank\AppData\Local\Temp\ccPU761z.s 			page 3


  54 0000 7047     		bx	lr
  55              		.cfi_endproc
  56              	.LFE135:
  58              		.section	.text.HAL_PPP_MspInit,"ax",%progbits
  59              		.align	1
  60              		.global	HAL_PPP_MspInit
  61              		.syntax unified
  62              		.thumb
  63              		.thumb_func
  65              	HAL_PPP_MspInit:
  66              	.LFB136:
  65:Drivers/STM32F4xx_HAL_Driver/Src/stm32f4xx_hal_msp_template.c **** 
  66:Drivers/STM32F4xx_HAL_Driver/Src/stm32f4xx_hal_msp_template.c **** /**
  67:Drivers/STM32F4xx_HAL_Driver/Src/stm32f4xx_hal_msp_template.c ****   * @brief  Initializes the PPP MSP.
  68:Drivers/STM32F4xx_HAL_Driver/Src/stm32f4xx_hal_msp_template.c ****   * @note   This functiona is called from HAL_PPP_Init() function to perform 
  69:Drivers/STM32F4xx_HAL_Driver/Src/stm32f4xx_hal_msp_template.c ****   *         peripheral(PPP) system level initialization (GPIOs, clock, DMA, interrupt)
  70:Drivers/STM32F4xx_HAL_Driver/Src/stm32f4xx_hal_msp_template.c ****   * @retval None
  71:Drivers/STM32F4xx_HAL_Driver/Src/stm32f4xx_hal_msp_template.c ****   */
  72:Drivers/STM32F4xx_HAL_Driver/Src/stm32f4xx_hal_msp_template.c **** void HAL_PPP_MspInit(void)
  73:Drivers/STM32F4xx_HAL_Driver/Src/stm32f4xx_hal_msp_template.c **** {
  67              		.loc 1 73 1 view -0
  68              		.cfi_startproc
  69              		@ args = 0, pretend = 0, frame = 0
  70              		@ frame_needed = 0, uses_anonymous_args = 0
  71              		@ link register save eliminated.
  74:Drivers/STM32F4xx_HAL_Driver/Src/stm32f4xx_hal_msp_template.c **** 
  75:Drivers/STM32F4xx_HAL_Driver/Src/stm32f4xx_hal_msp_template.c **** }
  72              		.loc 1 75 1 view .LVU5
  73 0000 7047     		bx	lr
  74              		.cfi_endproc
  75              	.LFE136:
  77              		.section	.text.HAL_PPP_MspDeInit,"ax",%progbits
  78              		.align	1
  79              		.global	HAL_PPP_MspDeInit
  80              		.syntax unified
  81              		.thumb
  82              		.thumb_func
  84              	HAL_PPP_MspDeInit:
  85              	.LFB137:
  76:Drivers/STM32F4xx_HAL_Driver/Src/stm32f4xx_hal_msp_template.c **** 
  77:Drivers/STM32F4xx_HAL_Driver/Src/stm32f4xx_hal_msp_template.c **** /**
  78:Drivers/STM32F4xx_HAL_Driver/Src/stm32f4xx_hal_msp_template.c ****   * @brief  DeInitializes the PPP MSP.
  79:Drivers/STM32F4xx_HAL_Driver/Src/stm32f4xx_hal_msp_template.c ****   * @note   This functiona is called from HAL_PPP_DeInit() function to perform 
  80:Drivers/STM32F4xx_HAL_Driver/Src/stm32f4xx_hal_msp_template.c ****   *         peripheral(PPP) system level de-initialization (GPIOs, clock, DMA, interrupt)
  81:Drivers/STM32F4xx_HAL_Driver/Src/stm32f4xx_hal_msp_template.c ****   * @retval None
  82:Drivers/STM32F4xx_HAL_Driver/Src/stm32f4xx_hal_msp_template.c ****   */
  83:Drivers/STM32F4xx_HAL_Driver/Src/stm32f4xx_hal_msp_template.c **** void HAL_PPP_MspDeInit(void)
  84:Drivers/STM32F4xx_HAL_Driver/Src/stm32f4xx_hal_msp_template.c **** {
  86              		.loc 1 84 1 view -0
  87              		.cfi_startproc
  88              		@ args = 0, pretend = 0, frame = 0
  89              		@ frame_needed = 0, uses_anonymous_args = 0
  90              		@ link register save eliminated.
  85:Drivers/STM32F4xx_HAL_Driver/Src/stm32f4xx_hal_msp_template.c **** 
  86:Drivers/STM32F4xx_HAL_Driver/Src/stm32f4xx_hal_msp_template.c **** }
  91              		.loc 1 86 1 view .LVU7
  92 0000 7047     		bx	lr
ARM GAS  C:\Users\efrank\AppData\Local\Temp\ccPU761z.s 			page 4


  93              		.cfi_endproc
  94              	.LFE137:
  96              		.text
  97              	.Letext0:
ARM GAS  C:\Users\efrank\AppData\Local\Temp\ccPU761z.s 			page 5

